; Function Attrs: nounwind uwtable
define internal noundef i32 @run_deblock_bs(ptr readnone captures(none) %0, ptr noundef %1, ptr noundef readonly captures(none) %2) #0 {
  %4 = getelementptr inbounds nuw i8, ptr %1, i64 4580544
  %5 = load ptr, ptr %4, align 16, !tbaa !68
  %6 = getelementptr inbounds nuw i8, ptr %5, i64 8
  %7 = load ptr, ptr %6, align 8, !tbaa !182
  %8 = getelementptr inbounds nuw i8, ptr %7, i64 2334
  %9 = load i8, ptr %8, align 2, !tbaa !183
  %.not = icmp eq i8 %9, 0
  br i1 %.not, label %10, label %17

10:                                               ; preds = %3
  %11 = getelementptr inbounds nuw i8, ptr %2, i64 20
  %12 = load i32, ptr %11, align 4, !tbaa !82
  %13 = getelementptr inbounds nuw i8, ptr %2, i64 24
  %14 = load i32, ptr %13, align 8, !tbaa !83
  %15 = getelementptr inbounds nuw i8, ptr %2, i64 28
  %16 = load i32, ptr %15, align 4, !tbaa !111
  tail call void @ff_vvc_deblock_bs(ptr noundef nonnull %1, i32 noundef %12, i32 noundef %14, i32 noundef %16) #7
  br label %17

17:                                               ; preds = %10, %3
  ret i32 0
}